(i__main__
FeatureMap
p0
(dp1
S'timap'
p2
(dp3
sS'trigrams'
p4
ccollections
defaultdict
p5
(c__builtin__
int
p6
tp7
Rp8
sS'unigrams'
p9
g5
(g6
tp10
Rp11
sS'bigrams'
p12
g5
(g6
tp13
Rp14
sS'itmap'
p15
(dp16
sb.